target datalayout = "e-m:e-p270:32:32-p271:32:32-p272:64:64-i64:64-i128:128-f80:128-n8:16:32:64-S128"
target triple = "x86_64-pc-linux-gnu"

; Function Attrs: alwaysinline mustprogress uwtable
define internal noundef ptr @_ZL14alignedNewImplILb0EEPvmSt11align_val_t(i64 noundef %0, i64 noundef %1) #1 {
  %3 = alloca ptr, align 8
  %4 = alloca i64, align 8
  %5 = alloca i64, align 8
  %6 = alloca ptr, align 8
  %7 = alloca i32, align 4
  store i64 %0, ptr %4, align 8, !tbaa !4
  store i64 %1, ptr %5, align 8, !tbaa !12
  call void @llvm.lifetime.start.p0(i64 8, ptr %6) #26
  %8 = load i64, ptr %5, align 8, !tbaa !12
  %9 = load i64, ptr %4, align 8, !tbaa !4
  %10 = call noalias ptr @aligned_alloc(i64 noundef %8, i64 noundef %9) #28
  call void @llvm.assume(i1 true) [ "align"(ptr %10, i64 %8) ]
  store ptr %10, ptr %6, align 8, !tbaa !8
  %11 = load ptr, ptr %6, align 8, !tbaa !8
  %12 = icmp ne ptr %11, null
  %13 = xor i1 %12, true
  %14 = xor i1 %13, true
  %15 = zext i1 %14 to i64
  %16 = call i64 @llvm.expect.i64(i64 %15, i64 1)
  %17 = icmp ne i64 %16, 0
  br i1 %17, label %18, label %20

18:                                               ; preds = %2
  %19 = load ptr, ptr %6, align 8, !tbaa !8
  store ptr %19, ptr %3, align 8
  store i32 1, ptr %7, align 4
  br label %23

20:                                               ; preds = %2
  %21 = load i64, ptr %4, align 8, !tbaa !4
  %22 = call noundef ptr @_ZL9handleOOMmb(i64 noundef %21, i1 noundef zeroext false)
  store ptr %22, ptr %3, align 8
  store i32 1, ptr %7, align 4
  br label %23

23:                                               ; preds = %20, %18
  call void @llvm.lifetime.end.p0(i64 8, ptr %6) #26
  %24 = load ptr, ptr %3, align 8
  ret ptr %24
}

; Function Attrs: mustprogress nobuiltin allocsize(0) uwtable
define dso_local noalias noundef nonnull ptr @_ZnamSt11align_val_t(i64 noundef %0, i64 noundef %1) #0 {
  %3 = alloca i64, align 8
  %4 = alloca i64, align 8
  store i64 %0, ptr %3, align 8, !tbaa !4
  store i64 %1, ptr %4, align 8, !tbaa !12
  %5 = load i64, ptr %3, align 8, !tbaa !4
  %6 = load i64, ptr %4, align 8, !tbaa !12
  %7 = call noundef ptr @_ZL14alignedNewImplILb0EEPvmSt11align_val_t(i64 noundef %5, i64 noundef %6)
  ret ptr %7
}